target datalayout = "e-m:e-p270:32:32-p271:32:32-p272:64:64-i64:64-i128:128-f80:128-n8:16:32:64-S128"
target triple = "x86_64-pc-linux-gnu"

%struct.Llb_Mtr_t_ = type { i32, i32, i32, i32, ptr, ptr, ptr, ptr, ptr, ptr, ptr }

; Function Attrs: nounwind uwtable
define void @Llb_MtrRemoveSingletonRows(ptr noundef %0) #0 {
  %2 = alloca ptr, align 8
  %3 = alloca i32, align 4
  %4 = alloca i32, align 4
  store ptr %0, ptr %2, align 8, !tbaa !3
  call void @llvm.lifetime.start.p0(i64 4, ptr %3) #8
  call void @llvm.lifetime.start.p0(i64 4, ptr %4) #8
  store i32 0, ptr %3, align 4, !tbaa !8
  br label %5

5:                                                ; preds = %72, %1
  %6 = load i32, ptr %3, align 4, !tbaa !8
  %7 = load ptr, ptr %2, align 8, !tbaa !3
  %8 = getelementptr inbounds nuw %struct.Llb_Mtr_t_, ptr %7, i32 0, i32 2
  %9 = load i32, ptr %8, align 8, !tbaa !17
  %10 = icmp slt i32 %6, %9
  br i1 %10, label %11, label %75

11:                                               ; preds = %5
  %12 = load ptr, ptr %2, align 8, !tbaa !3
  %13 = getelementptr inbounds nuw %struct.Llb_Mtr_t_, ptr %12, i32 0, i32 6
  %14 = load ptr, ptr %13, align 8, !tbaa !33
  %15 = load i32, ptr %3, align 4, !tbaa !8
  %16 = sext i32 %15 to i64
  %17 = getelementptr inbounds i32, ptr %14, i64 %16
  %18 = load i32, ptr %17, align 4, !tbaa !8
  %19 = icmp slt i32 %18, 2
  br i1 %19, label %20, label %71

20:                                               ; preds = %11
  %21 = load ptr, ptr %2, align 8, !tbaa !3
  %22 = getelementptr inbounds nuw %struct.Llb_Mtr_t_, ptr %21, i32 0, i32 6
  %23 = load ptr, ptr %22, align 8, !tbaa !33
  %24 = load i32, ptr %3, align 4, !tbaa !8
  %25 = sext i32 %24 to i64
  %26 = getelementptr inbounds i32, ptr %23, i64 %25
  store i32 0, ptr %26, align 4, !tbaa !8
  store i32 0, ptr %4, align 4, !tbaa !8
  br label %27

27:                                               ; preds = %67, %20
  %28 = load i32, ptr %4, align 4, !tbaa !8
  %29 = load ptr, ptr %2, align 8, !tbaa !3
  %30 = getelementptr inbounds nuw %struct.Llb_Mtr_t_, ptr %29, i32 0, i32 3
  %31 = load i32, ptr %30, align 4, !tbaa !10
  %32 = icmp slt i32 %28, %31
  br i1 %32, label %33, label %70

33:                                               ; preds = %27
  %34 = load ptr, ptr %2, align 8, !tbaa !3
  %35 = getelementptr inbounds nuw %struct.Llb_Mtr_t_, ptr %34, i32 0, i32 7
  %36 = load ptr, ptr %35, align 8, !tbaa !18
  %37 = load i32, ptr %4, align 4, !tbaa !8
  %38 = sext i32 %37 to i64
  %39 = getelementptr inbounds ptr, ptr %36, i64 %38
  %40 = load ptr, ptr %39, align 8, !tbaa !19
  %41 = load i32, ptr %3, align 4, !tbaa !8
  %42 = sext i32 %41 to i64
  %43 = getelementptr inbounds i8, ptr %40, i64 %42
  %44 = load i8, ptr %43, align 1, !tbaa !20
  %45 = sext i8 %44 to i32
  %46 = icmp eq i32 %45, 1
  br i1 %46, label %47, label %66

47:                                               ; preds = %33
  %48 = load ptr, ptr %2, align 8, !tbaa !3
  %49 = getelementptr inbounds nuw %struct.Llb_Mtr_t_, ptr %48, i32 0, i32 7
  %50 = load ptr, ptr %49, align 8, !tbaa !18
  %51 = load i32, ptr %4, align 4, !tbaa !8
  %52 = sext i32 %51 to i64
  %53 = getelementptr inbounds ptr, ptr %50, i64 %52
  %54 = load ptr, ptr %53, align 8, !tbaa !19
  %55 = load i32, ptr %3, align 4, !tbaa !8
  %56 = sext i32 %55 to i64
  %57 = getelementptr inbounds i8, ptr %54, i64 %56
  store i8 0, ptr %57, align 1, !tbaa !20
  %58 = load ptr, ptr %2, align 8, !tbaa !3
  %59 = getelementptr inbounds nuw %struct.Llb_Mtr_t_, ptr %58, i32 0, i32 4
  %60 = load ptr, ptr %59, align 8, !tbaa !44
  %61 = load i32, ptr %4, align 4, !tbaa !8
  %62 = sext i32 %61 to i64
  %63 = getelementptr inbounds i32, ptr %60, i64 %62
  %64 = load i32, ptr %63, align 4, !tbaa !8
  %65 = add nsw i32 %64, -1
  store i32 %65, ptr %63, align 4, !tbaa !8
  br label %66

66:                                               ; preds = %47, %33
  br label %67

67:                                               ; preds = %66
  %68 = load i32, ptr %4, align 4, !tbaa !8
  %69 = add nsw i32 %68, 1
  store i32 %69, ptr %4, align 4, !tbaa !8
  br label %27, !llvm.loop !78

70:                                               ; preds = %27
  br label %71

71:                                               ; preds = %70, %11
  br label %72

72:                                               ; preds = %71
  %73 = load i32, ptr %3, align 4, !tbaa !8
  %74 = add nsw i32 %73, 1
  store i32 %74, ptr %3, align 4, !tbaa !8
  br label %5, !llvm.loop !79

75:                                               ; preds = %5
  call void @llvm.lifetime.end.p0(i64 4, ptr %4) #8
  call void @llvm.lifetime.end.p0(i64 4, ptr %3) #8
  ret void
}