; Function Attrs: nofree norecurse nosync nounwind memory(readwrite, inaccessiblemem: none) uwtable
define void @Llb_MtrRemoveSingletonRows(ptr noundef readonly captures(none) %0) local_unnamed_addr #10 {
  %2 = getelementptr inbounds nuw i8, ptr %0, i64 8
  %3 = load i32, ptr %2, align 8, !tbaa !3
  %4 = icmp sgt i32 %3, 0
  br i1 %4, label %.lr.ph20, label %._crit_edge

.lr.ph20:                                         ; preds = %1
  %5 = getelementptr inbounds nuw i8, ptr %0, i64 32
  %6 = getelementptr inbounds nuw i8, ptr %0, i64 12
  %7 = getelementptr inbounds nuw i8, ptr %0, i64 40
  %8 = getelementptr inbounds nuw i8, ptr %0, i64 16
  br label %9

9:                                                ; preds = %.lr.ph20, %.loopexit
  %indvars.iv22 = phi i64 [ 0, %.lr.ph20 ], [ %indvars.iv.next23, %.loopexit ]
  %10 = load ptr, ptr %5, align 8, !tbaa !26
  %11 = getelementptr inbounds nuw i32, ptr %10, i64 %indvars.iv22
  %12 = load i32, ptr %11, align 4, !tbaa !15
  %13 = icmp slt i32 %12, 2
  br i1 %13, label %14, label %.loopexit

14:                                               ; preds = %9
  store i32 0, ptr %11, align 4, !tbaa !15
  %15 = load i32, ptr %6, align 4, !tbaa !14
  %16 = icmp sgt i32 %15, 0
  br i1 %16, label %.lr.ph, label %.loopexit

.lr.ph:                                           ; preds = %14, %29
  %17 = phi i32 [ %30, %29 ], [ %15, %14 ]
  %indvars.iv = phi i64 [ %indvars.iv.next, %29 ], [ 0, %14 ]
  %18 = load ptr, ptr %7, align 8, !tbaa !19
  %19 = getelementptr inbounds nuw ptr, ptr %18, i64 %indvars.iv
  %20 = load ptr, ptr %19, align 8, !tbaa !20
  %21 = getelementptr inbounds nuw i8, ptr %20, i64 %indvars.iv22
  %22 = load i8, ptr %21, align 1, !tbaa !21
  %23 = icmp eq i8 %22, 1
  br i1 %23, label %24, label %29

24:                                               ; preds = %.lr.ph
  store i8 0, ptr %21, align 1, !tbaa !21
  %25 = load ptr, ptr %8, align 8, !tbaa !40
  %26 = getelementptr inbounds nuw i32, ptr %25, i64 %indvars.iv
  %27 = load i32, ptr %26, align 4, !tbaa !15
  %28 = add nsw i32 %27, -1
  store i32 %28, ptr %26, align 4, !tbaa !15
  %.pre = load i32, ptr %6, align 4, !tbaa !14
  br label %29

29:                                               ; preds = %.lr.ph, %24
  %30 = phi i32 [ %17, %.lr.ph ], [ %.pre, %24 ]
  %indvars.iv.next = add nuw nsw i64 %indvars.iv, 1
  %31 = sext i32 %30 to i64
  %32 = icmp slt i64 %indvars.iv.next, %31
  br i1 %32, label %.lr.ph, label %.loopexit, !llvm.loop !72

.loopexit:                                        ; preds = %29, %14, %9
  %indvars.iv.next23 = add nuw nsw i64 %indvars.iv22, 1
  %33 = load i32, ptr %2, align 8, !tbaa !3
  %34 = sext i32 %33 to i64
  %35 = icmp slt i64 %indvars.iv.next23, %34
  br i1 %35, label %9, label %._crit_edge, !llvm.loop !73

._crit_edge:                                      ; preds = %.loopexit, %1
  ret void
}